; Function Attrs: inlinehint mustprogress nounwind uwtable
define internal fastcc void @"_ZZN9grpc_core9CallSpine30SpawnGuardedUntilCallCompletesIZNS_13ClientChannel9StartCallENS_20UnstartedCallHandlerEE3$_0EEvSt17basic_string_viewIcSt11char_traitsIcEET_ENUlvE_D2Ev"(ptr noundef nonnull readonly align 8 captures(none) dereferenceable(24) %0) unnamed_addr #16 align 2 personality ptr @__gxx_personality_v0 {
  %2 = getelementptr inbounds nuw i8, ptr %0, i64 8
  %3 = getelementptr inbounds nuw i8, ptr %0, i64 16
  %4 = load ptr, ptr %3, align 8, !tbaa !368
  %.not.i.i.i = icmp eq ptr %4, null
  br i1 %.not.i.i.i, label %_ZN9grpc_core20UnstartedCallHandlerD2Ev.exit.i, label %5

5:                                                ; preds = %1
  %6 = getelementptr inbounds nuw i8, ptr %4, i64 16
  %7 = atomicrmw sub ptr %6, i64 1099511627776 acq_rel, align 8
  %8 = and i64 %7, -1099511627776
  %9 = icmp eq i64 %8, 1099511627776
  br i1 %9, label %10, label %_ZN9grpc_core20UnstartedCallHandlerD2Ev.exit.i

10:                                               ; preds = %5
  invoke void @_ZN9grpc_core5Party11PartyIsOverEv(ptr noundef nonnull align 8 dereferenceable(168) %4)
          to label %_ZN9grpc_core20UnstartedCallHandlerD2Ev.exit.i unwind label %11

11:                                               ; preds = %10
  %12 = landingpad { ptr, i32 }
          catch ptr null
  %13 = extractvalue { ptr, i32 } %12, 0
  tail call void @__clang_call_terminate(ptr %13) #47
  unreachable

_ZN9grpc_core20UnstartedCallHandlerD2Ev.exit.i:   ; preds = %10, %5, %1
  %14 = load ptr, ptr %2, align 8, !tbaa !219
  %.not.i.i = icmp eq ptr %14, null
  br i1 %.not.i.i, label %"_ZZN9grpc_core13ClientChannel9StartCallENS_20UnstartedCallHandlerEEN3$_0D2Ev.exit", label %15

15:                                               ; preds = %_ZN9grpc_core20UnstartedCallHandlerD2Ev.exit.i
  %16 = getelementptr inbounds nuw i8, ptr %14, i64 8
  %17 = atomicrmw add ptr %16, i64 -4294967295 acq_rel, align 8
  %.mask.i.i.i = and i64 %17, -4294967296
  %18 = icmp eq i64 %.mask.i.i.i, 4294967296
  br i1 %18, label %19, label %.noexc.i.i, !prof !26

19:                                               ; preds = %15
  %20 = load ptr, ptr %14, align 8, !tbaa !8
  %21 = getelementptr inbounds nuw i8, ptr %20, i64 16
  %22 = load ptr, ptr %21, align 8
  invoke void %22(ptr noundef nonnull align 8 dereferenceable(16) %14)
          to label %.noexc.i.i unwind label %29

.noexc.i.i:                                       ; preds = %19, %15
  %23 = atomicrmw sub ptr %16, i64 1 acq_rel, align 8
  %24 = icmp eq i64 %23, 1
  br i1 %24, label %25, label %"_ZZN9grpc_core13ClientChannel9StartCallENS_20UnstartedCallHandlerEEN3$_0D2Ev.exit", !prof !26

25:                                               ; preds = %.noexc.i.i
  %26 = load ptr, ptr %14, align 8, !tbaa !8
  %27 = getelementptr inbounds nuw i8, ptr %26, i64 8
  %28 = load ptr, ptr %27, align 8
  tail call void %28(ptr noundef nonnull align 8 dereferenceable(16) %14) #42
  br label %"_ZZN9grpc_core13ClientChannel9StartCallENS_20UnstartedCallHandlerEEN3$_0D2Ev.exit"

29:                                               ; preds = %19
  %30 = landingpad { ptr, i32 }
          catch ptr null
  %31 = extractvalue { ptr, i32 } %30, 0
  tail call void @__clang_call_terminate(ptr %31) #47
  unreachable

"_ZZN9grpc_core13ClientChannel9StartCallENS_20UnstartedCallHandlerEEN3$_0D2Ev.exit": ; preds = %_ZN9grpc_core20UnstartedCallHandlerD2Ev.exit.i, %.noexc.i.i, %25
  ret void
}